(lp0
S'Pt_addJet1'
p1
aS'DeepCSVcTagCvsL_addJet1'
p2
aS'DeepCSVcTagCvsB_addJet1'
p3
aS'Pt_addJet2'
p4
aS'DeepCSVcTagCvsL_addJet2'
p5
aS'DeepCSVcTagCvsB_addJet2'
p6
aS'TopMatching_NN_best_value'
p7
aS'DeltaR_addJets'
p8
a.