(dp0
S'/pnfs/iihe/cms/store/user/smoortga/Analysis/FlatTree/2017Analysis_MC_NewElectronIDv2/TTZToQQ_TuneCP5_13TeV-amcatnlo-pythia8/RunIIFall17MiniAODv2_PU2017_12Apr2018_94X_mc2017_realistic_v14_v2_MINIAODSIM/181107_174158/0000/'
p1
L594713L
sS'/pnfs/iihe/cms/store/user/smoortga/Analysis/FlatTree/2017Analysis_Data_NewElectronIDv2/DoubleMuon/Run2017C_31Mar2018_v1_MINIAOD/181107_153456/0000/'
p2
L46014590L
sS'/pnfs/iihe/cms/store/user/smoortga/Analysis/FlatTree/2017Analysis_Data_NewElectronIDv2/DoubleMuon/Run2017B_31Mar2018_v1_MINIAOD/181107_153133/0000/'
p3
L13549229L
sS'/pnfs/iihe/cms/store/user/smoortga/Analysis/FlatTree/2017Analysis_DataSingleLepton_NewElectronIDv2_trial4/SingleMuon/Run2017F_31Mar2018_v1_MINIAOD/181225_122416/0001/'
p4
L118518067L
sS'/pnfs/iihe/cms/store/user/smoortga/Analysis/FlatTree/2017Analysis_MC_NewElectronIDv2/TTToHadronic_TuneCP5down_PSweights_13TeV-powheg-pythia8/RunIIFall17MiniAODv2_PU2017_12Apr2018_new_pmx_94X_mc2017_realistic_v14_v2_MINIAODSIM/181111_191400/0000/'
p5
L27051344L
sS'/pnfs/iihe/cms/store/user/smoortga/Analysis/FlatTree/2017Analysis_MC_NewElectronIDv2/TTTo2L2Nu_TuneCP5down_PSweights_13TeV-powheg-pythia8/RunIIFall17MiniAODv2_PU2017_12Apr2018_new_pmx_94X_mc2017_realistic_v14_v1_MINIAODSIM/181111_190030/0000/'
p6
L5265132L
sS'/pnfs/iihe/cms/store/user/smoortga/Analysis/FlatTree/2017Analysis_Data_NewElectronIDv2/DoubleEG/Run2017B_31Mar2018_v1_MINIAOD/181107_154343/0000/'
p7
L53723088L
sS'/pnfs/iihe/cms/store/user/smoortga/Analysis/FlatTree/2017Analysis_MC_NewElectronIDv2/TTToHadronic_hdampUP_TuneCP5_PSweights_13TeV-powheg-pythia8/RunIIFall17MiniAODv2_PU2017_12Apr2018_94X_mc2017_realistic_v14_v2_MINIAODSIM/181111_191931/0000/'
p8
L27057631L
sS'/pnfs/iihe/cms/store/user/smoortga/Analysis/FlatTree/2017Analysis_DataSingleLepton_NewElectronIDv2_trial4/SingleMuon/Run2017C_31Mar2018_v1_MINIAOD/181225_123201/0000/'
p9
L101015007L
sS'/pnfs/iihe/cms/store/user/smoortga/Analysis/FlatTree/2017Analysis_DataSingleLepton_NewElectronIDv2/SingleElectron/Run2017F_31Mar2018_v1_MINIAOD/181116_102052/0000/'
p10
L124865516L
sS'/pnfs/iihe/cms/store/user/smoortga/Analysis/FlatTree/2017Analysis_MC_NewElectronIDv2/TTToSemiLeptonic_TuneCP5up_PSweights_13TeV-powheg-pythia8/RunIIFall17MiniAODv2_PU2017_12Apr2018_new_pmx_94X_mc2017_realistic_v14_v2_MINIAODSIM/181111_190648/0000/'
p11
L15169448L
sS'/pnfs/iihe/cms/store/user/smoortga/Analysis/FlatTree/2017Analysis_MC_NewElectronIDv2/TTTo2L2Nu_hdampUP_TuneCP5_PSweights_13TeV-powheg-pythia8/RunIIFall17MiniAODv2_PU2017_12Apr2018_94X_mc2017_realistic_v14_v1_MINIAODSIM/181111_190441/0000/'
p12
L5368887L
sS'/pnfs/iihe/cms/store/user/smoortga/Analysis/FlatTree/2017Analysis_Data_NewElectronIDv2/DoubleMuon/Run2017E_31Mar2018_v1_MINIAOD/181107_153910/0000/'
p13
L50322142L
sS'/pnfs/iihe/cms/store/user/smoortga/Analysis/FlatTree/2017Analysis_MC_NewElectronIDv2/WJetsToLNu_TuneCP5_13TeV-madgraphMLM-pythia8/RunIIFall17MiniAODv2_PU2017_12Apr2018_94X_mc2017_realistic_v14_v2_MINIAODSIM/181107_173627/0000/'
p14
L32967403L
sS'/pnfs/iihe/cms/store/user/smoortga/Analysis/FlatTree/2017Analysis_MC_NewElectronIDv2/TTToHadronic_TuneCP5_PSweights_13TeV-powheg-pythia8/RunIIFall17MiniAODv2_PU2017_12Apr2018_new_pmx_94X_mc2017_realistic_v14_v1_MINIAODSIM/181111_191247/0000/'
p15
L123398601L
sS'/pnfs/iihe/cms/store/user/smoortga/Analysis/FlatTree/2017Analysis_Data_NewElectronIDv2/DoubleEG/Run2017E_31Mar2018_v1_MINIAOD/181107_155124/0000/'
p16
L54020285L
sS'/pnfs/iihe/cms/store/user/smoortga/Analysis/FlatTree/2017Analysis_MC_NewElectronIDv2/ST_t-channel_top_4f_inclusiveDecays_TuneCP5_13TeV-powhegV2-madspin-pythia8/RunIIFall17MiniAODv2_PU2017_12Apr2018_new_pmx_94X_mc2017_realistic_v14_v1_MINIAODSIM/181107_173330/0000/'
p17
L5271979L
sS'/pnfs/iihe/cms/store/user/smoortga/Analysis/FlatTree/2017Analysis_Data_NewElectronIDv2/DoubleMuon/Run2017F_31Mar2018_v1_MINIAOD/181107_154139/0000/'
p18
L74894389L
sS'/pnfs/iihe/cms/store/user/smoortga/Analysis/FlatTree/2017Analysis_MC_NewElectronIDv2/TTZToLLNuNu_M-10_TuneCP5_PSweights_13TeV-amcatnlo-pythia8/RunIIFall17MiniAODv2_PU2017_12Apr2018_94X_mc2017_realistic_v14_v1_MINIAODSIM/181107_174432/0000/'
p19
L10963943L
sS'/pnfs/iihe/cms/store/user/smoortga/Analysis/FlatTree/2017Analysis_MC_NewElectronIDv2/WZZ_TuneCP5_13TeV-amcatnlo-pythia8/RunIIFall17MiniAODv2_PU2017_12Apr2018_94X_mc2017_realistic_v14_v1_MINIAODSIM/181107_180513/0000/'
p20
L247424L
sS'/pnfs/iihe/cms/store/user/smoortga/Analysis/FlatTree/2017Analysis_MC_NewElectronIDv2/TTToSemiLeptonic_hdampUP_TuneCP5_PSweights_13TeV-powheg-pythia8/RunIIFall17MiniAODv2_PU2017_12Apr2018_new_pmx_94X_mc2017_realistic_v14_v2_MINIAODSIM/181111_190937/0000/'
p21
L23786116L
sS'/pnfs/iihe/cms/store/user/smoortga/Analysis/FlatTree/2017Analysis_MC_NewElectronIDv2/TTToSemiLeptonic_hdampDOWN_TuneCP5_PSweights_13TeV-powheg-pythia8/RunIIFall17MiniAODv2_PU2017_12Apr2018_94X_mc2017_realistic_v14_v1_MINIAODSIM/181111_191100/0000/'
p22
L26165029L
sS'/pnfs/iihe/cms/store/user/smoortga/Analysis/FlatTree/2017Analysis_Data_NewElectronIDv2/MuonEG/Run2017E_31Mar2018_v1_MINIAOD/181107_160219/0000/'
p23
L18598933L
sS'/pnfs/iihe/cms/store/user/smoortga/Analysis/FlatTree/2017Analysis_MC_NewElectronIDv2/ST_s-channel_4f_leptonDecays_TuneCP5_13TeV-amcatnlo-pythia8/RunIIFall17MiniAODv2_PU2017_12Apr2018_94X_mc2017_realistic_v14_v2_MINIAODSIM/181108_170326/0000/'
p24
L9565598L
sS'/pnfs/iihe/cms/store/user/smoortga/Analysis/FlatTree/2017Analysis_MC_NewElectronIDv2/DYJetsToLL_M-50_TuneCP5_13TeV-amcatnloFXFX-pythia8/RunIIFall17MiniAODv2_PU2017_12Apr2018_94X_mc2017_realistic_v14_v1_MINIAODSIM/181107_172036/0000/'
p25
L27217864L
sS'/pnfs/iihe/cms/store/user/smoortga/Analysis/FlatTree/2017Analysis_MC_NewElectronIDv2/DYJetsToLL_M-10to50_TuneCP5_13TeV-madgraphMLM-pythia8/RunIIFall17MiniAODv2_PU2017_12Apr2018_94X_mc2017_realistic_v14_v1_MINIAODSIM/181107_172337/0000/'
p26
L39131736L
sS'/pnfs/iihe/cms/store/user/smoortga/Analysis/FlatTree/2017Analysis_MC_NewElectronIDv2/TTToSemiLeptonic_TuneCP5_PSweights_13TeV-powheg-pythia8/RunIIFall17MiniAODv2_PU2017_12Apr2018_94X_mc2017_realistic_v14_v2_MINIAODSIM/181111_190544/0000/'
p27
L109213727L
sS'/pnfs/iihe/cms/store/user/smoortga/Analysis/FlatTree/2017Analysis_MC_NewElectronIDv2/ZZZ_TuneCP5_13TeV-amcatnlo-pythia8/RunIIFall17MiniAODv2_PU2017_12Apr2018_94X_mc2017_realistic_v14_v1_MINIAODSIM/181107_181710/0000/'
p28
L247754L
sS'/pnfs/iihe/cms/store/user/smoortga/Analysis/FlatTree/2017Analysis_MC_NewElectronIDv2/TTToHadronic_TuneCP5up_PSweights_13TeV-powheg-pythia8/RunIIFall17MiniAODv2_PU2017_12Apr2018_new_pmx_94X_mc2017_realistic_v14_v1_MINIAODSIM/181111_191525/0000/'
p29
L26908997L
sS'/pnfs/iihe/cms/store/user/smoortga/Analysis/FlatTree/2017Analysis_DataSingleLepton_NewElectronIDv2/SingleMuon/Run2017D_31Mar2018_v1_MINIAOD/181116_100552/0000/'
p30
L68866396L
sS'/pnfs/iihe/cms/store/user/smoortga/Analysis/FlatTree/2017Analysis_MC_NewElectronIDv2/ST_t-channel_antitop_4f_inclusiveDecays_TuneCP5_13TeV-powhegV2-madspin-pythia8/RunIIFall17MiniAODv2_PU2017_12Apr2018_94X_mc2017_realistic_v14_v2_MINIAODSIM/181107_173139/0000/'
p31
L3657270L
sS'/pnfs/iihe/cms/store/user/smoortga/Analysis/FlatTree/2017Analysis_Data_NewElectronIDv2/DoubleEG/Run2017F_31Mar2018_v1_MINIAOD/181107_155308/0000/'
p32
L71502368L
sS'/pnfs/iihe/cms/store/user/smoortga/Analysis/FlatTree/2017Analysis_Data_NewElectronIDv2/MuonEG/Run2017B_31Mar2018_v1_MINIAOD/181107_155523/0000/'
p33
L4136129L
sS'/pnfs/iihe/cms/store/user/smoortga/Analysis/FlatTree/2017Analysis_MC_NewElectronIDv2/TTTo2L2Nu_hdampDOWN_TuneCP5_PSweights_13TeV-powheg-pythia8/RunIIFall17MiniAODv2_PU2017_12Apr2018_new_pmx_94X_mc2017_realistic_v14_v1_MINIAODSIM/181111_190313/0000/'
p34
L5430389L
sS'/pnfs/iihe/cms/store/user/smoortga/Analysis/FlatTree/2017Analysis_MC_NewElectronIDv2/WZ_TuneCP5_13TeV-pythia8/RunIIFall17MiniAODv2_PU2017_12Apr2018_94X_mc2017_realistic_v14_v1_MINIAODSIM/181107_180124/0000/'
p35
L3907028L
sS'/pnfs/iihe/cms/store/user/smoortga/Analysis/FlatTree/2017Analysis_MC_NewElectronIDv2/WW_TuneCP5_13TeV-pythia8/RunIIFall17MiniAODv2_PU2017_12Apr2018_94X_mc2017_realistic_v14_v1_MINIAODSIM/181107_175723/0000/'
p36
L7464913L
sS'/pnfs/iihe/cms/store/user/smoortga/Analysis/FlatTree/2017Analysis_MC_NewElectronIDv2/TTJets_TuneCP5_13TeV-amcatnloFXFX-pythia8/RunIIFall17MiniAODv2_PU2017_12Apr2018_new_pmx_94X_mc2017_realistic_v14_v1_MINIAODSIM/181111_185926/0000/'
p37
L151570035L
sS'/pnfs/iihe/cms/store/user/smoortga/Analysis/FlatTree/2017Analysis_MC_NewElectronIDv2/TTToHadronic_hdampDOWN_TuneCP5_PSweights_13TeV-powheg-pythia8/RunIIFall17MiniAODv2_PU2017_12Apr2018_94X_mc2017_realistic_v14_v1_MINIAODSIM/181111_191718/0000/'
p38
L26253039L
sS'/pnfs/iihe/cms/store/user/smoortga/Analysis/FlatTree/2017Analysis_MC_NewElectronIDv2/ttHToNonbb_M125_TuneCP5_13TeV-powheg-pythia8/RunIIFall17MiniAODv2_PU2017_12Apr2018_new_pmx_94X_mc2017_realistic_v14_v1_MINIAODSIM/181107_182623/0000/'
p39
L7871623L
sS'/pnfs/iihe/cms/store/user/smoortga/Analysis/FlatTree/2017Analysis_DataSingleLepton_NewElectronIDv2_trial4/SingleMuon/Run2017F_31Mar2018_v1_MINIAOD/181225_122416/0000/'
p40
L116746346L
sS'/pnfs/iihe/cms/store/user/smoortga/Analysis/FlatTree/2017Analysis_Data_NewElectronIDv2/MuonEG/Run2017C_31Mar2018_v1_MINIAOD/181107_155719/0000/'
p41
L14513155L
sS'/pnfs/iihe/cms/store/user/smoortga/Analysis/FlatTree/2017Analysis_Data_NewElectronIDv2/DoubleEG/Run2017C_31Mar2018_v1_MINIAOD/181107_154639/0000/'
p42
L59520056L
sS'/pnfs/iihe/cms/store/user/smoortga/Analysis/FlatTree/2017Analysis_DataSingleLepton_NewElectronIDv2/SingleElectron/Run2017D_31Mar2018_v1_MINIAOD/181116_101707/0000/'
p43
L50295739L
sS'/pnfs/iihe/cms/store/user/smoortga/Analysis/FlatTree/2017Analysis_Data_NewElectronIDv2/MuonEG/Run2017F_31Mar2018_v1_MINIAOD/181107_160438/0000/'
p44
L25180428L
sS'/pnfs/iihe/cms/store/user/smoortga/Analysis/FlatTree/2017Analysis_DataSingleLepton_NewElectronIDv2/SingleElectron/Run2017C_31Mar2018_v1_MINIAOD/181116_101451/0000/'
p45
L126565740L
sS'/pnfs/iihe/cms/store/user/smoortga/Analysis/FlatTree/2017Analysis_Data_NewElectronIDv2/DoubleMuon/Run2017D_31Mar2018_v1_MINIAOD/181107_153652/0000/'
p46
L22491259L
sS'/pnfs/iihe/cms/store/user/smoortga/Analysis/FlatTree/2017Analysis_MC_NewElectronIDv2/TTTo2L2Nu_TuneCP5up_PSweights_13TeV-powheg-pythia8/RunIIFall17MiniAODv2_PU2017_12Apr2018_new_pmx_94X_mc2017_realistic_v14_v1_MINIAODSIM/181111_190155/0000/'
p47
L5453615L
sS'/pnfs/iihe/cms/store/user/smoortga/Analysis/FlatTree/2017Analysis_MC_NewElectronIDv2/WWW_4F_TuneCP5_13TeV-amcatnlo-pythia8/RunIIFall17MiniAODv2_PU2017_12Apr2018_94X_mc2017_realistic_v14_v1_MINIAODSIM/181107_181325/0000/'
p48
L237485L
sS'/pnfs/iihe/cms/store/user/smoortga/Analysis/FlatTree/2017Analysis_MC_NewElectronIDv2/ZZ_TuneCP5_13TeV-pythia8/RunIIFall17MiniAODv2_PU2017_12Apr2018_94X_mc2017_realistic_v14_v1_MINIAODSIM/181107_175427/0000/'
p49
L1939615L
sS'/pnfs/iihe/cms/store/user/smoortga/Analysis/FlatTree/2017Analysis_DataSingleLepton_NewElectronIDv2/SingleMuon/Run2017B_31Mar2018_v1_MINIAOD/181116_100148/0000/'
p50
L128241827L
sS'/pnfs/iihe/cms/store/user/smoortga/Analysis/FlatTree/2017Analysis_MC_NewElectronIDv2/TTWJetsToLNu_TuneCP5_PSweights_13TeV-amcatnloFXFX-madspin-pythia8/RunIIFall17MiniAODv2_PU2017_12Apr2018_new_pmx_94X_mc2017_realistic_v14_v1_MINIAODSIM/181107_175120/0000/'
p51
L4844911L
sS'/pnfs/iihe/cms/store/user/smoortga/Analysis/FlatTree/2017Analysis_DataSingleLepton_NewElectronIDv2_trial4/SingleMuon/Run2017C_31Mar2018_v1_MINIAOD/181225_123201/0001/'
p52
L53238231L
sS'/pnfs/iihe/cms/store/user/smoortga/Analysis/FlatTree/2017Analysis_MC_NewElectronIDv2/WWZ_4F_TuneCP5_13TeV-amcatnlo-pythia8/RunIIFall17MiniAODv2_PU2017_12Apr2018_94X_mc2017_realistic_v14_v1_MINIAODSIM/181107_180954/0000/'
p53
L247197L
sS'/pnfs/iihe/cms/store/user/smoortga/Analysis/FlatTree/2017Analysis_Data_NewElectronIDv2/MuonEG/Run2017D_31Mar2018_v1_MINIAOD/181107_155857/0000/'
p54
L8971425L
sS'/pnfs/iihe/cms/store/user/smoortga/Analysis/FlatTree/2017Analysis_DataSingleLepton_NewElectronIDv2_trial4/SingleMuon/Run2017E_31Mar2018_v1_MINIAOD/181225_122252/0000/'
p55
L103358963L
sS'/pnfs/iihe/cms/store/user/smoortga/Analysis/FlatTree/2017Analysis_MC_NewElectronIDv2/TTTo2L2Nu_TuneCP5_PSweights_13TeV-powheg-pythia8/RunIIFall17MiniAODv2_PU2017_12Apr2018_new_pmx_94X_mc2017_realistic_v14_v2_MINIAODSIM/181226_102657/0000/'
p56
L68574051L
sS'/pnfs/iihe/cms/store/user/smoortga/Analysis/FlatTree/2017Analysis_DataSingleLepton_NewElectronIDv2/SingleElectron/Run2017B_31Mar2018_v1_MINIAOD/181116_101244/0000/'
p57
L56144556L
sS'/pnfs/iihe/cms/store/user/smoortga/Analysis/FlatTree/2017Analysis_Data_NewElectronIDv2/DoubleEG/Run2017D_31Mar2018_v1_MINIAOD/181107_154859/0000/'
p58
L24988748L
sS'/pnfs/iihe/cms/store/user/smoortga/Analysis/FlatTree/2017Analysis_MC_NewElectronIDv2/ST_tW_antitop_5f_inclusiveDecays_TuneCP5_13TeV-powheg-pythia8/RunIIFall17MiniAODv2_PU2017_12Apr2018_94X_mc2017_realistic_v14_v2_MINIAODSIM/181108_170145/0000/'
p59
L7542968L
sS'/pnfs/iihe/cms/store/user/smoortga/Analysis/FlatTree/2017Analysis_MC_NewElectronIDv2/TTWJetsToQQ_TuneCP5_13TeV-amcatnloFXFX-madspin-pythia8/RunIIFall17MiniAODv2_PU2017_12Apr2018_94X_mc2017_realistic_v14_v2_MINIAODSIM/181107_174811/0000/'
p60
L801427L
sS'/pnfs/iihe/cms/store/user/smoortga/Analysis/FlatTree/2017Analysis_MC_NewElectronIDv2/TTToSemiLeptonic_TuneCP5down_PSweights_13TeV-powheg-pythia8/RunIIFall17MiniAODv2_PU2017_12Apr2018_94X_mc2017_realistic_v14_v1_MINIAODSIM/181111_190808/0000/'
p61
L26729994L
sS'/pnfs/iihe/cms/store/user/smoortga/Analysis/FlatTree/2017Analysis_DataSingleLepton_NewElectronIDv2/SingleElectron/Run2017E_31Mar2018_v1_MINIAOD/181116_101856/0000/'
p62
L99386609L
sS'/pnfs/iihe/cms/store/user/smoortga/Analysis/FlatTree/2017Analysis_MC_NewElectronIDv2/ttHTobb_M125_TuneCP5_13TeV-powheg-pythia8/RunIIFall17MiniAODv2_PU2017_12Apr2018_new_pmx_94X_mc2017_realistic_v14_v1_MINIAODSIM/181107_182157/0000/'
p63
L7922588L
sS'/pnfs/iihe/cms/store/user/smoortga/Analysis/FlatTree/2017Analysis_MC_NewElectronIDv2/ST_tW_top_5f_inclusiveDecays_TuneCP5_PSweights_13TeV-powheg-pythia8/RunIIFall17MiniAODv2_PU2017_12Apr2018_new_pmx_94X_mc2017_realistic_v14_v1_MINIAODSIM/181107_172828/0000/'
p64
L7687092L
sS'/pnfs/iihe/cms/store/user/smoortga/Analysis/FlatTree/2017Analysis_DataSingleLepton_NewElectronIDv2_trial4/SingleMuon/Run2017E_31Mar2018_v1_MINIAOD/181225_122252/0001/'
p65
L47952195L
s.